; Function Attrs: nounwind uwtable
define ptr @l___private_Lean_Elab_PreDefinition_MkInhabitant_0__Lean_Elab_withInhabitedInstances_go___rarg___lambda__1___boxed(ptr noundef %0, ptr noundef %1, ptr noundef %2, ptr noundef %3, ptr noundef %4, ptr noundef %5, ptr noundef %6, ptr noundef %7, ptr noundef %8, ptr noundef %9) #0 {
  %11 = ptrtoint ptr %0 to i64
  %12 = and i64 %11, 1
  %.not.i12 = icmp eq i64 %12, 0
  br i1 %.not.i12, label %.critedge.i.i, label %13, !prof !16

13:                                               ; preds = %10
  %14 = lshr i64 %11, 1
  %15 = add nuw i64 %14, 1
  %16 = icmp sgt i64 %15, -1
  br i1 %16, label %17, label %21, !prof !11

17:                                               ; preds = %13
  %18 = shl nuw i64 %15, 1
  %19 = or disjoint i64 %18, 1
  %20 = inttoptr i64 %19 to ptr
  br label %l___private_Lean_Elab_PreDefinition_MkInhabitant_0__Lean_Elab_withInhabitedInstances_go___rarg___lambda__1.exit

21:                                               ; preds = %13
  %22 = tail call ptr @lean_big_usize_to_nat(i64 noundef range(i64 0, -1) %15) #4
  br label %l___private_Lean_Elab_PreDefinition_MkInhabitant_0__Lean_Elab_withInhabitedInstances_go___rarg___lambda__1.exit

.critedge.i.i:                                    ; preds = %10
  %23 = tail call ptr @lean_nat_big_add(ptr noundef %0, ptr noundef nonnull inttoptr (i64 3 to ptr)) #4
  br label %l___private_Lean_Elab_PreDefinition_MkInhabitant_0__Lean_Elab_withInhabitedInstances_go___rarg___lambda__1.exit

l___private_Lean_Elab_PreDefinition_MkInhabitant_0__Lean_Elab_withInhabitedInstances_go___rarg___lambda__1.exit: ; preds = %17, %21, %.critedge.i.i
  %.0.i.i = phi ptr [ %23, %.critedge.i.i ], [ %20, %17 ], [ %22, %21 ]
  %24 = tail call ptr @lean_array_push(ptr noundef %1, ptr noundef %4) #4
  %25 = tail call ptr @l___private_Lean_Elab_PreDefinition_MkInhabitant_0__Lean_Elab_withInhabitedInstances_go___rarg(ptr noundef %2, ptr noundef %3, ptr noundef %.0.i.i, ptr noundef %24, ptr noundef %5, ptr noundef %6, ptr noundef %7, ptr noundef %8, ptr noundef %9)
  br i1 %.not.i12, label %26, label %lean_dec.exit

26:                                               ; preds = %l___private_Lean_Elab_PreDefinition_MkInhabitant_0__Lean_Elab_withInhabitedInstances_go___rarg___lambda__1.exit
  %27 = load i32, ptr %0, align 4, !tbaa !4
  %28 = icmp sgt i32 %27, 1
  br i1 %28, label %29, label %31, !prof !11

29:                                               ; preds = %26
  %30 = add nsw i32 %27, -1
  store i32 %30, ptr %0, align 4, !tbaa !4
  br label %lean_dec.exit

31:                                               ; preds = %26
  %.not.i = icmp eq i32 %27, 0
  br i1 %.not.i, label %lean_dec.exit, label %32

32:                                               ; preds = %31
  tail call void @lean_dec_ref_cold(ptr noundef nonnull %0) #4
  br label %lean_dec.exit

lean_dec.exit:                                    ; preds = %32, %31, %29, %l___private_Lean_Elab_PreDefinition_MkInhabitant_0__Lean_Elab_withInhabitedInstances_go___rarg___lambda__1.exit
  ret ptr %25
}